; Function Attrs: nounwind uwtable
define dso_local range(i32 0, 2) i32 @Curl_cpool_init(ptr noundef %0, ptr noundef %1, ptr noundef %2, ptr noundef %3, i64 noundef %4) local_unnamed_addr #0 {
  tail call void @Curl_hash_init(ptr noundef %0, i64 noundef %4, ptr noundef nonnull @Curl_hash_str, ptr noundef nonnull @Curl_str_key_compare, ptr noundef nonnull @cpool_bundle_free_entry) #7
  %6 = getelementptr inbounds nuw i8, ptr %0, i64 88
  tail call void @Curl_llist_init(ptr noundef nonnull %6, ptr noundef null) #7
  %.not = icmp eq ptr %1, null
  br i1 %.not, label %20, label %7

7:                                                ; preds = %5
  %8 = tail call ptr @curl_easy_init() #7
  %9 = getelementptr inbounds nuw i8, ptr %0, i64 120
  store ptr %8, ptr %9, align 8, !tbaa !4
  %.not19 = icmp eq ptr %8, null
  br i1 %.not19, label %20, label %10

10:                                               ; preds = %7
  %11 = getelementptr inbounds nuw i8, ptr %8, i64 4876
  %12 = load i32, ptr %11, align 4
  %13 = or i32 %12, 1048576
  store i32 %13, ptr %11, align 4
  %14 = load ptr, ptr %9, align 8, !tbaa !4
  %15 = getelementptr inbounds nuw i8, ptr %14, i64 208
  %16 = getelementptr inbounds nuw i8, ptr %0, i64 144
  store ptr %1, ptr %16, align 8, !tbaa !19
  %17 = getelementptr inbounds nuw i8, ptr %0, i64 128
  store ptr %2, ptr %17, align 8, !tbaa !20
  store ptr %2, ptr %15, align 8, !tbaa !21
  %18 = getelementptr inbounds nuw i8, ptr %0, i64 136
  store ptr %3, ptr %18, align 8, !tbaa !82
  %19 = getelementptr inbounds nuw i8, ptr %14, i64 224
  store ptr %3, ptr %19, align 8, !tbaa !83
  br label %20

20:                                               ; preds = %7, %5, %10
  %.0 = phi i32 [ 0, %10 ], [ 1, %5 ], [ 1, %7 ]
  ret i32 %.0
}